Certificate:
    Data:
        Version: 3 (0x2)
        Serial Number: 3 (0x3)
        Signature Algorithm: sha1WithRSAEncryption
        Issuer: CN=SER.Certs.Inc, ST=SipLand, C=NL/emailAddress=cesc@sipland.sl, O=CA.ffeine Inc., OU=Certification Services
        Validity
            Not Before: Jun 17 15:03:34 2005 GMT
            Not After : May 30 15:03:34 2016 GMT
        Subject: C=CT, ST=SipUserland, O=SipSerUser, OU=HumanBeing, CN=Eve/emailAddress=eve@sipuser.org
        Subject Public Key Info:
            Public Key Algorithm: rsaEncryption
            RSA Public Key: (1024 bit)
                Modulus (1024 bit):
                    00:f1:43:10:bb:3b:1a:f3:21:5d:ad:b9:40:58:fd:
                    ee:7d:ee:e6:ba:75:10:45:16:1b:bf:a1:35:0f:b7:
                    ed:a5:3a:96:f6:85:04:4b:d0:b7:92:b7:ba:29:c5:
                    91:de:9b:f3:ba:7b:41:0a:6c:72:65:3c:8e:79:62:
                    33:44:1c:19:bf:d8:52:2f:8c:8d:ac:82:fb:3e:d3:
                    a9:23:07:3b:37:ee:8a:d1:c2:60:65:93:83:78:86:
                    1e:9e:2c:9a:25:e4:db:87:e0:24:c5:d7:9d:31:d2:
                    16:45:09:48:d8:1f:f1:8e:36:da:b7:e1:f7:b6:4a:
                    1d:09:5e:3a:97:a7:e4:6a:55
                Exponent: 65537 (0x10001)
        X509v3 extensions:
            X509v3 Basic Constraints: 
                CA:FALSE
    Signature Algorithm: sha1WithRSAEncryption
        85:8d:11:62:a0:10:6a:d0:06:43:5a:02:0b:7a:ab:4e:c4:17:
        4c:91:5d:e9:57:a1:6b:57:db:7e:05:ae:99:f1:fb:06:a9:66:
        4d:08:33:ab:ee:d7:11:9d:c7:27:7a:27:26:d5:cc:b2:9a:55:
        4a:55:24:84:f4:41:10:cc:dc:7b:e8:9a:15:ae:cb:de:b4:86:
        05:ad:13:3c:5c:cf:ac:44:05:5b:d4:93:a9:08:e3:cb:e9:90:
        2d:5a:7c:cb:a5:b6:e2:c3:67:95:e8:f1:62:55:e3:0f:c0:2c:
        ae:6a:02:29:16:f9:1d:d3:16:de:c4:06:b4:c0:8a:63:74:db:
        e9:13
-----BEGIN CERTIFICATE-----
MIICkDCCAfmgAwIBAgIBAzANBgkqhkiG9w0BAQUFADCBkTEWMBQGA1UEAxMNU0VS
LkNlcnRzLkluYzEQMA4GA1UECBMHU2lwTGFuZDELMAkGA1UEBhMCTkwxHjAcBgkq
hkiG9w0BCQEWD2Nlc2NAc2lwbGFuZC5zbDEXMBUGA1UEChMOQ0EuZmZlaW5lIElu
Yy4xHzAdBgNVBAsTFkNlcnRpZmljYXRpb24gU2VydmljZXMwHhcNMDUwNjE3MTUw
MzM0WhcNMTYwNTMwMTUwMzM0WjB7MQswCQYDVQQGEwJDVDEUMBIGA1UECBMLU2lw
VXNlcmxhbmQxEzARBgNVBAoTClNpcFNlclVzZXIxEzARBgNVBAsTCkh1bWFuQmVp
bmcxDDAKBgNVBAMTA0V2ZTEeMBwGCSqGSIb3DQEJARYPZXZlQHNpcHVzZXIub3Jn
MIGfMA0GCSqGSIb3DQEBAQUAA4GNADCBiQKBgQDxQxC7OxrzIV2tuUBY/e597ua6
dRBFFhu/oTUPt+2lOpb2hQRL0LeSt7opxZHem/O6e0EKbHJlPI55YjNEHBm/2FIv
jI2sgvs+06kjBzs37orRwmBlk4N4hh6eLJol5NuH4CTF150x0hZFCUjYH/GONtq3
4fe2Sh0JXjqXp+RqVQIDAQABow0wCzAJBgNVHRMEAjAAMA0GCSqGSIb3DQEBBQUA
A4GBAIWNEWKgEGrQBkNaAgt6q07EF0yRXelXoWtX234Frpnx+wapZk0IM6vu1xGd
xyd6JybVzLKaVUpVJIT0QRDM3HvomhWuy960hgWtEzxcz6xEBVvUk6kI48vpkC1a
fMultuLDZ5Xo8WJV4w/ALK5qAikW+R3TFt7EBrTAimN02+kT
-----END CERTIFICATE-----
